target datalayout = "e-m:e-p270:32:32-p271:32:32-p272:64:64-i64:64-i128:128-f80:128-n8:16:32:64-S128"
target triple = "x86_64-pc-linux-gnu"

%struct.Curl_sockaddr_ex = type { i32, i32, i32, i32, %union.anon }
%union.anon = type { %struct.Curl_sockaddr_storage }
%struct.Curl_sockaddr_storage = type { %union.anon.0 }
%union.anon.0 = type { %struct.sockaddr_storage }
%struct.sockaddr_storage = type { i16, [118 x i8], i64 }
%struct.curltime = type { i64, i32 }
%struct.Curl_cfilter = type { ptr, ptr, ptr, ptr, i32, i8 }
%struct.cf_socket_ctx = type { i32, %struct.Curl_sockaddr_ex, i32, %struct.bufq, [46 x i8], i32, [46 x i8], i32, %struct.curltime, %struct.curltime, %struct.curltime, i32, i8 }
%struct.bufq = type { ptr, ptr, ptr, ptr, i64, i64, i64, i32 }

; Function Attrs: nounwind uwtable
define internal zeroext i1 @cf_is_socket(ptr noundef %0) #0 {
  %2 = alloca ptr, align 8
  store ptr %0, ptr %2, align 8
  %3 = load ptr, ptr %2, align 8
  %4 = icmp ne ptr %3, null
  br i1 %4, label %5, label %27

5:                                                ; preds = %1
  %6 = load ptr, ptr %2, align 8
  %7 = getelementptr inbounds %struct.Curl_cfilter, ptr %6, i32 0, i32 0
  %8 = load ptr, ptr %7, align 8
  %9 = icmp eq ptr %8, @Curl_cft_tcp
  br i1 %9, label %25, label %10

10:                                               ; preds = %5
  %11 = load ptr, ptr %2, align 8
  %12 = getelementptr inbounds %struct.Curl_cfilter, ptr %11, i32 0, i32 0
  %13 = load ptr, ptr %12, align 8
  %14 = icmp eq ptr %13, @Curl_cft_udp
  br i1 %14, label %25, label %15

15:                                               ; preds = %10
  %16 = load ptr, ptr %2, align 8
  %17 = getelementptr inbounds %struct.Curl_cfilter, ptr %16, i32 0, i32 0
  %18 = load ptr, ptr %17, align 8
  %19 = icmp eq ptr %18, @Curl_cft_unix
  br i1 %19, label %25, label %20

20:                                               ; preds = %15
  %21 = load ptr, ptr %2, align 8
  %22 = getelementptr inbounds %struct.Curl_cfilter, ptr %21, i32 0, i32 0
  %23 = load ptr, ptr %22, align 8
  %24 = icmp eq ptr %23, @Curl_cft_tcp_accept
  br label %25

25:                                               ; preds = %20, %15, %10, %5
  %26 = phi i1 [ true, %15 ], [ true, %10 ], [ true, %5 ], [ %24, %20 ]
  br label %27

27:                                               ; preds = %25, %1
  %28 = phi i1 [ false, %1 ], [ %26, %25 ]
  ret i1 %28
}

; Function Attrs: nounwind uwtable
define dso_local i32 @Curl_cf_socket_peek(ptr noundef %0, ptr noundef %1, ptr noundef %2, ptr noundef %3, ptr noundef %4, ptr noundef %5, ptr noundef %6, ptr noundef %7) #0 {
  %9 = alloca i32, align 4
  %10 = alloca ptr, align 8
  %11 = alloca ptr, align 8
  %12 = alloca ptr, align 8
  %13 = alloca ptr, align 8
  %14 = alloca ptr, align 8
  %15 = alloca ptr, align 8
  %16 = alloca ptr, align 8
  %17 = alloca ptr, align 8
  %18 = alloca ptr, align 8
  store ptr %0, ptr %10, align 8
  store ptr %1, ptr %11, align 8
  store ptr %2, ptr %12, align 8
  store ptr %3, ptr %13, align 8
  store ptr %4, ptr %14, align 8
  store ptr %5, ptr %15, align 8
  store ptr %6, ptr %16, align 8
  store ptr %7, ptr %17, align 8
  %19 = load ptr, ptr %10, align 8
  %20 = call zeroext i1 @cf_is_socket(ptr noundef %19)
  br i1 %20, label %21, label %87

21:                                               ; preds = %8
  %22 = load ptr, ptr %10, align 8
  %23 = getelementptr inbounds %struct.Curl_cfilter, ptr %22, i32 0, i32 2
  %24 = load ptr, ptr %23, align 8
  %25 = icmp ne ptr %24, null
  br i1 %25, label %26, label %87

26:                                               ; preds = %21
  %27 = load ptr, ptr %10, align 8
  %28 = getelementptr inbounds %struct.Curl_cfilter, ptr %27, i32 0, i32 2
  %29 = load ptr, ptr %28, align 8
  store ptr %29, ptr %18, align 8
  %30 = load ptr, ptr %12, align 8
  %31 = icmp ne ptr %30, null
  br i1 %31, label %32, label %37

32:                                               ; preds = %26
  %33 = load ptr, ptr %18, align 8
  %34 = getelementptr inbounds %struct.cf_socket_ctx, ptr %33, i32 0, i32 2
  %35 = load i32, ptr %34, align 8
  %36 = load ptr, ptr %12, align 8
  store i32 %35, ptr %36, align 4
  br label %37

37:                                               ; preds = %32, %26
  %38 = load ptr, ptr %13, align 8
  %39 = icmp ne ptr %38, null
  br i1 %39, label %40, label %44

40:                                               ; preds = %37
  %41 = load ptr, ptr %18, align 8
  %42 = getelementptr inbounds %struct.cf_socket_ctx, ptr %41, i32 0, i32 1
  %43 = load ptr, ptr %13, align 8
  store ptr %42, ptr %43, align 8
  br label %44

44:                                               ; preds = %40, %37
  %45 = load ptr, ptr %14, align 8
  %46 = icmp ne ptr %45, null
  br i1 %46, label %47, label %52

47:                                               ; preds = %44
  %48 = load ptr, ptr %18, align 8
  %49 = getelementptr inbounds %struct.cf_socket_ctx, ptr %48, i32 0, i32 4
  %50 = getelementptr inbounds [46 x i8], ptr %49, i64 0, i64 0
  %51 = load ptr, ptr %14, align 8
  store ptr %50, ptr %51, align 8
  br label %52

52:                                               ; preds = %47, %44
  %53 = load ptr, ptr %15, align 8
  %54 = icmp ne ptr %53, null
  br i1 %54, label %55, label %60

55:                                               ; preds = %52
  %56 = load ptr, ptr %18, align 8
  %57 = getelementptr inbounds %struct.cf_socket_ctx, ptr %56, i32 0, i32 5
  %58 = load i32, ptr %57, align 8
  %59 = load ptr, ptr %15, align 8
  store i32 %58, ptr %59, align 4
  br label %60

60:                                               ; preds = %55, %52
  %61 = load ptr, ptr %17, align 8
  %62 = icmp ne ptr %61, null
  br i1 %62, label %66, label %63

63:                                               ; preds = %60
  %64 = load ptr, ptr %16, align 8
  %65 = icmp ne ptr %64, null
  br i1 %65, label %66, label %86

66:                                               ; preds = %63, %60
  %67 = load ptr, ptr %10, align 8
  %68 = load ptr, ptr %11, align 8
  %69 = call i32 @set_local_ip(ptr noundef %67, ptr noundef %68)
  %70 = load ptr, ptr %16, align 8
  %71 = icmp ne ptr %70, null
  br i1 %71, label %72, label %77

72:                                               ; preds = %66
  %73 = load ptr, ptr %18, align 8
  %74 = getelementptr inbounds %struct.cf_socket_ctx, ptr %73, i32 0, i32 6
  %75 = getelementptr inbounds [46 x i8], ptr %74, i64 0, i64 0
  %76 = load ptr, ptr %16, align 8
  store ptr %75, ptr %76, align 8
  br label %77

77:                                               ; preds = %72, %66
  %78 = load ptr, ptr %17, align 8
  %79 = icmp ne ptr %78, null
  br i1 %79, label %80, label %85

80:                                               ; preds = %77
  %81 = load ptr, ptr %18, align 8
  %82 = getelementptr inbounds %struct.cf_socket_ctx, ptr %81, i32 0, i32 7
  %83 = load i32, ptr %82, align 4
  %84 = load ptr, ptr %17, align 8
  store i32 %83, ptr %84, align 4
  br label %85

85:                                               ; preds = %80, %77
  br label %86

86:                                               ; preds = %85, %63
  store i32 0, ptr %9, align 4
  br label %88

87:                                               ; preds = %21, %8
  store i32 2, ptr %9, align 4
  br label %88

88:                                               ; preds = %87, %86
  %89 = load i32, ptr %9, align 4
  ret i32 %89
}