; Function Attrs: nounwind uwtable
define dso_local range(i32 0, 3) i32 @Curl_cf_socket_peek(ptr noundef readonly %0, ptr noundef %1, ptr noundef writeonly %2, ptr noundef writeonly %3, ptr noundef writeonly %4, ptr noundef writeonly %5, ptr noundef writeonly %6, ptr noundef writeonly %7) local_unnamed_addr #2 {
  %.not.i = icmp eq ptr %0, null
  br i1 %.not.i, label %cf_is_socket.exit.thread, label %cf_is_socket.exit

cf_is_socket.exit:                                ; preds = %8
  %9 = load ptr, ptr %0, align 8
  %10 = icmp eq ptr %9, @Curl_cft_tcp
  %11 = icmp eq ptr %9, @Curl_cft_udp
  %or.cond.i = or i1 %10, %11
  %12 = icmp eq ptr %9, @Curl_cft_unix
  %or.cond6.i = or i1 %12, %or.cond.i
  %13 = icmp eq ptr %9, @Curl_cft_tcp_accept
  %spec.select.i = or i1 %13, %or.cond6.i
  br i1 %spec.select.i, label %14, label %cf_is_socket.exit.thread

14:                                               ; preds = %cf_is_socket.exit
  %15 = getelementptr inbounds nuw i8, ptr %0, i64 16
  %16 = load ptr, ptr %15, align 8
  %.not = icmp eq ptr %16, null
  br i1 %.not, label %cf_is_socket.exit.thread, label %17

17:                                               ; preds = %14
  %.not33 = icmp eq ptr %2, null
  br i1 %.not33, label %21, label %18

18:                                               ; preds = %17
  %19 = getelementptr inbounds nuw i8, ptr %16, i64 152
  %20 = load i32, ptr %19, align 8
  store i32 %20, ptr %2, align 4
  br label %21

21:                                               ; preds = %18, %17
  %.not34 = icmp eq ptr %3, null
  br i1 %.not34, label %24, label %22

22:                                               ; preds = %21
  %23 = getelementptr inbounds nuw i8, ptr %16, i64 8
  store ptr %23, ptr %3, align 8
  br label %24

24:                                               ; preds = %22, %21
  %.not35 = icmp eq ptr %4, null
  br i1 %.not35, label %27, label %25

25:                                               ; preds = %24
  %26 = getelementptr inbounds nuw i8, ptr %16, i64 224
  store ptr %26, ptr %4, align 8
  br label %27

27:                                               ; preds = %25, %24
  %.not36 = icmp eq ptr %5, null
  br i1 %.not36, label %31, label %28

28:                                               ; preds = %27
  %29 = getelementptr inbounds nuw i8, ptr %16, i64 272
  %30 = load i32, ptr %29, align 8
  store i32 %30, ptr %5, align 4
  br label %31

31:                                               ; preds = %28, %27
  %32 = icmp ne ptr %7, null
  %33 = icmp ne ptr %6, null
  %or.cond = or i1 %33, %32
  br i1 %or.cond, label %34, label %cf_is_socket.exit.thread

34:                                               ; preds = %31
  %.val = load ptr, ptr %15, align 8
  tail call fastcc void @set_local_ip(ptr %.val, ptr noundef %1)
  br i1 %33, label %35, label %37

35:                                               ; preds = %34
  %36 = getelementptr inbounds nuw i8, ptr %16, i64 276
  store ptr %36, ptr %6, align 8
  br label %37

37:                                               ; preds = %35, %34
  br i1 %32, label %38, label %cf_is_socket.exit.thread

38:                                               ; preds = %37
  %39 = getelementptr inbounds nuw i8, ptr %16, i64 324
  %40 = load i32, ptr %39, align 4
  store i32 %40, ptr %7, align 4
  br label %cf_is_socket.exit.thread

cf_is_socket.exit.thread:                         ; preds = %8, %cf_is_socket.exit, %14, %31, %38, %37
  %.0 = phi i32 [ 0, %37 ], [ 0, %38 ], [ 0, %31 ], [ 2, %14 ], [ 2, %cf_is_socket.exit ], [ 2, %8 ]
  ret i32 %.0
}